(isudoku
SudokuGrid
p0
(dp1
S'gen_set'
p2
c__builtin__
set
p3
((lp4
I1
aI2
aI3
aI4
aI5
aI6
aI7
aI8
aI9
atp5
Rp6
sS'rows'
p7
(lp8
g3
((lp9
I7
aI1
aI3
aI9
atp10
Rp11
ag3
((lp12
I1
aI2
aI9
atp13
Rp14
ag3
((lp15
I2
aI3
atp16
Rp17
ag3
((lp18
I9
aI4
aI5
aI7
atp19
Rp20
ag3
((lp21
I8
aI9
aI4
aI6
atp22
Rp23
ag3
((lp24
I8
aI2
aI3
aI5
atp25
Rp26
ag3
((lp27
I9
aI7
atp28
Rp29
ag3
((lp30
I2
aI3
aI6
atp31
Rp32
ag3
((lp33
I1
aI5
aI6
aI7
atp34
Rp35
asS'verbose'
p36
I00
sS'row_coords'
p37
(dp38
I0
(lp39
(I0
I0
tp40
a(I1
I0
tp41
a(I2
I0
tp42
a(I3
I0
tp43
a(I4
I0
tp44
a(I5
I0
tp45
a(I6
I0
tp46
a(I7
I0
tp47
a(I8
I0
tp48
asI1
(lp49
(I0
I1
tp50
a(I1
I1
tp51
a(I2
I1
tp52
a(I3
I1
tp53
a(I4
I1
tp54
a(I5
I1
tp55
a(I6
I1
tp56
a(I7
I1
tp57
a(I8
I1
tp58
asI2
(lp59
(I0
I2
tp60
a(I1
I2
tp61
a(I2
I2
tp62
a(I3
I2
tp63
a(I4
I2
tp64
a(I5
I2
tp65
a(I6
I2
tp66
a(I7
I2
tp67
a(I8
I2
tp68
asI3
(lp69
(I0
I3
tp70
a(I1
I3
tp71
a(I2
I3
tp72
a(I3
I3
tp73
a(I4
I3
tp74
a(I5
I3
tp75
a(I6
I3
tp76
a(I7
I3
tp77
a(I8
I3
tp78
asI4
(lp79
(I0
I4
tp80
a(I1
I4
tp81
a(I2
I4
tp82
a(I3
I4
tp83
a(I4
I4
tp84
a(I5
I4
tp85
a(I6
I4
tp86
a(I7
I4
tp87
a(I8
I4
tp88
asI5
(lp89
(I0
I5
tp90
a(I1
I5
tp91
a(I2
I5
tp92
a(I3
I5
tp93
a(I4
I5
tp94
a(I5
I5
tp95
a(I6
I5
tp96
a(I7
I5
tp97
a(I8
I5
tp98
asI6
(lp99
(I0
I6
tp100
a(I1
I6
tp101
a(I2
I6
tp102
a(I3
I6
tp103
a(I4
I6
tp104
a(I5
I6
tp105
a(I6
I6
tp106
a(I7
I6
tp107
a(I8
I6
tp108
asI7
(lp109
(I0
I7
tp110
a(I1
I7
tp111
a(I2
I7
tp112
a(I3
I7
tp113
a(I4
I7
tp114
a(I5
I7
tp115
a(I6
I7
tp116
a(I7
I7
tp117
a(I8
I7
tp118
asI8
(lp119
(I0
I8
tp120
a(I1
I8
tp121
a(I2
I8
tp122
a(I3
I8
tp123
a(I4
I8
tp124
a(I5
I8
tp125
a(I6
I8
tp126
a(I7
I8
tp127
a(I8
I8
tp128
assS'cols'
p129
(lp130
g3
((lp131
I3
aI5
atp132
Rp133
ag3
((lp134
I9
aI3
aI4
atp135
Rp136
ag3
((lp137
I8
aI9
aI2
aI6
atp138
Rp139
ag3
((lp140
I1
aI9
aI7
atp141
Rp142
ag3
((lp143
I1
aI2
aI3
aI4
aI6
aI8
atp144
Rp145
ag3
((lp146
I2
aI5
aI7
atp147
Rp148
ag3
((lp149
I9
aI2
aI7
aI1
atp150
Rp151
ag3
((lp152
I5
aI6
aI7
atp153
Rp154
ag3
((lp155
I9
aI3
atp156
Rp157
asS'box_coords'
p158
(dp159
I0
(lp160
(I0
I0
tp161
a(I0
I1
tp162
a(I0
I2
tp163
a(I1
I0
tp164
a(I1
I1
tp165
a(I1
I2
tp166
a(I2
I0
tp167
a(I2
I1
tp168
a(I2
I2
tp169
asI1
(lp170
(I0
I3
tp171
a(I0
I4
tp172
a(I0
I5
tp173
a(I1
I3
tp174
a(I1
I4
tp175
a(I1
I5
tp176
a(I2
I3
tp177
a(I2
I4
tp178
a(I2
I5
tp179
asI2
(lp180
(I0
I6
tp181
a(I0
I7
tp182
a(I0
I8
tp183
a(I1
I6
tp184
a(I1
I7
tp185
a(I1
I8
tp186
a(I2
I6
tp187
a(I2
I7
tp188
a(I2
I8
tp189
asI3
(lp190
(I3
I0
tp191
a(I3
I1
tp192
a(I3
I2
tp193
a(I4
I0
tp194
a(I4
I1
tp195
a(I4
I2
tp196
a(I5
I0
tp197
a(I5
I1
tp198
a(I5
I2
tp199
asI4
(lp200
(I3
I3
tp201
a(I3
I4
tp202
a(I3
I5
tp203
a(I4
I3
tp204
a(I4
I4
tp205
a(I4
I5
tp206
a(I5
I3
tp207
a(I5
I4
tp208
a(I5
I5
tp209
asI5
(lp210
(I3
I6
tp211
a(I3
I7
tp212
a(I3
I8
tp213
a(I4
I6
tp214
a(I4
I7
tp215
a(I4
I8
tp216
a(I5
I6
tp217
a(I5
I7
tp218
a(I5
I8
tp219
asI6
(lp220
(I6
I0
tp221
a(I6
I1
tp222
a(I6
I2
tp223
a(I7
I0
tp224
a(I7
I1
tp225
a(I7
I2
tp226
a(I8
I0
tp227
a(I8
I1
tp228
a(I8
I2
tp229
asI7
(lp230
(I6
I3
tp231
a(I6
I4
tp232
a(I6
I5
tp233
a(I7
I3
tp234
a(I7
I4
tp235
a(I7
I5
tp236
a(I8
I3
tp237
a(I8
I4
tp238
a(I8
I5
tp239
asI8
(lp240
(I6
I6
tp241
a(I6
I7
tp242
a(I6
I8
tp243
a(I7
I6
tp244
a(I7
I7
tp245
a(I7
I8
tp246
a(I8
I6
tp247
a(I8
I7
tp248
a(I8
I8
tp249
assS'boxes'
p250
(lp251
g3
((lp252
I9
aI3
atp253
Rp254
ag3
((lp255
I8
aI2
aI4
aI5
atp256
Rp257
ag3
((lp258
I9
aI3
aI6
atp259
Rp260
ag3
((lp261
I1
aI2
aI3
aI7
atp262
Rp263
ag3
((lp264
I8
aI9
aI4
aI5
atp265
Rp266
ag3
((lp267
I1
aI2
aI6
aI7
atp268
Rp269
ag3
((lp270
I1
aI2
aI9
atp271
Rp272
ag3
((lp273
I9
aI3
aI6
aI7
atp274
Rp275
ag3
((lp276
I5
aI7
atp277
Rp278
asS'box_by_coords'
p279
(dp280
(I7
I3
tp281
I7
s(I4
I7
tp282
I5
s(I1
I3
tp283
I1
s(I4
I8
tp284
I5
s(I3
I0
tp285
I3
s(I2
I8
tp286
I2
s(I8
I0
tp287
I6
s(I7
I8
tp288
I8
s(I5
I4
tp289
I4
s(I2
I1
tp290
I0
s(I5
I6
tp291
I5
s(I2
I6
tp292
I2
s(I1
I6
tp293
I2
s(I3
I7
tp294
I5
s(I5
I1
tp295
I3
s(I2
I5
tp296
I1
s(I8
I5
tp297
I7
s(I0
I3
tp298
I1
s(I5
I8
tp299
I5
s(I4
I0
tp300
I3
s(I1
I2
tp301
I0
s(I7
I4
tp302
I7
s(I6
I4
tp303
I7
s(I3
I3
tp304
I4
s(I2
I0
tp305
I0
s(I8
I1
tp306
I6
s(I7
I6
tp307
I8
s(I4
I4
tp308
I4
s(I6
I3
tp309
I7
s(I1
I5
tp310
I1
s(I8
I8
tp311
I8
s(I7
I2
tp312
I6
s(I5
I0
tp313
I3
s(I0
I4
tp314
I1
s(I7
I7
tp315
I8
s(I5
I7
tp316
I5
s(I5
I3
tp317
I4
s(I4
I1
tp318
I3
s(I1
I1
tp319
I0
s(I2
I7
tp320
I2
s(I3
I2
tp321
I3
s(I0
I0
tp322
I0
s(I6
I6
tp323
I8
s(I3
I6
tp324
I5
s(I7
I1
tp325
I6
s(I4
I5
tp326
I4
s(I2
I2
tp327
I0
s(I5
I5
tp328
I4
s(I1
I4
tp329
I1
s(I6
I0
tp330
I6
s(I7
I5
tp331
I7
s(I0
I5
tp332
I1
s(I0
I7
tp333
I2
s(I8
I7
tp334
I8
s(I6
I8
tp335
I8
s(I4
I2
tp336
I3
s(I1
I0
tp337
I0
s(I0
I8
tp338
I2
s(I6
I5
tp339
I7
s(I3
I5
tp340
I4
s(I0
I1
tp341
I0
s(I8
I3
tp342
I7
s(I7
I0
tp343
I6
s(I4
I6
tp344
I5
s(I6
I7
tp345
I8
s(I3
I4
tp346
I4
s(I6
I1
tp347
I6
s(I3
I1
tp348
I3
s(I8
I2
tp349
I6
s(I0
I2
tp350
I0
s(I3
I8
tp351
I5
s(I0
I6
tp352
I2
s(I1
I8
tp353
I2
s(I6
I2
tp354
I6
s(I4
I3
tp355
I4
s(I1
I7
tp356
I2
s(I8
I6
tp357
I8
s(I2
I3
tp358
I1
s(I5
I2
tp359
I3
s(I2
I4
tp360
I1
s(I8
I4
tp361
I7
ssS'grid'
p362
cNumeric
array_constructor
p363
((I9
I9
tp364
S'b'
p365
S'\x00\t\x00\x00\x03\x07\x01\x00\x00\x00\x00\x00\x01\x02\x00\x00\x00\t\x00\x03\x00\x00\x00\x00\x02\x00\x00\x05\x00\x00\t\x04\x00\x07\x00\x00\x00\x04\x08\x00\x00\x00\t\x06\x00\x00\x00\x02\x00\x08\x05\x00\x00\x03\x00\x00\t\x00\x00\x00\x00\x07\x00\x03\x00\x00\x00\x06\x02\x00\x00\x00\x00\x00\x06\x07\x01\x00\x00\x05\x00'
p366
I01
tp367
Rp368
sS'col_coords'
p369
(dp370
I0
(lp371
(I0
I0
tp372
a(I0
I1
tp373
a(I0
I2
tp374
a(I0
I3
tp375
a(I0
I4
tp376
a(I0
I5
tp377
a(I0
I6
tp378
a(I0
I7
tp379
a(I0
I8
tp380
asI1
(lp381
(I1
I0
tp382
a(I1
I1
tp383
a(I1
I2
tp384
a(I1
I3
tp385
a(I1
I4
tp386
a(I1
I5
tp387
a(I1
I6
tp388
a(I1
I7
tp389
a(I1
I8
tp390
asI2
(lp391
(I2
I0
tp392
a(I2
I1
tp393
a(I2
I2
tp394
a(I2
I3
tp395
a(I2
I4
tp396
a(I2
I5
tp397
a(I2
I6
tp398
a(I2
I7
tp399
a(I2
I8
tp400
asI3
(lp401
(I3
I0
tp402
a(I3
I1
tp403
a(I3
I2
tp404
a(I3
I3
tp405
a(I3
I4
tp406
a(I3
I5
tp407
a(I3
I6
tp408
a(I3
I7
tp409
a(I3
I8
tp410
asI4
(lp411
(I4
I0
tp412
a(I4
I1
tp413
a(I4
I2
tp414
a(I4
I3
tp415
a(I4
I4
tp416
a(I4
I5
tp417
a(I4
I6
tp418
a(I4
I7
tp419
a(I4
I8
tp420
asI5
(lp421
(I5
I0
tp422
a(I5
I1
tp423
a(I5
I2
tp424
a(I5
I3
tp425
a(I5
I4
tp426
a(I5
I5
tp427
a(I5
I6
tp428
a(I5
I7
tp429
a(I5
I8
tp430
asI6
(lp431
(I6
I0
tp432
a(I6
I1
tp433
a(I6
I2
tp434
a(I6
I3
tp435
a(I6
I4
tp436
a(I6
I5
tp437
a(I6
I6
tp438
a(I6
I7
tp439
a(I6
I8
tp440
asI7
(lp441
(I7
I0
tp442
a(I7
I1
tp443
a(I7
I2
tp444
a(I7
I3
tp445
a(I7
I4
tp446
a(I7
I5
tp447
a(I7
I6
tp448
a(I7
I7
tp449
a(I7
I8
tp450
asI8
(lp451
(I8
I0
tp452
a(I8
I1
tp453
a(I8
I2
tp454
a(I8
I3
tp455
a(I8
I4
tp456
a(I8
I5
tp457
a(I8
I6
tp458
a(I8
I7
tp459
a(I8
I8
tp460
assS'group_size'
p461
I9
sb.